; Function Attrs: mustprogress nofree norecurse nosync nounwind willreturn memory(read, inaccessiblemem: none) uwtable
define hidden noundef i64 @_ZNK4cvc58internal7Integer15getUnsignedLongEv(ptr noundef nonnull readonly align 8 captures(none) dereferenceable(16) %0) local_unnamed_addr #5 align 2 {
  %2 = getelementptr inbounds nuw i8, ptr %0, i64 8
  %3 = load ptr, ptr %2, align 8, !tbaa !17
  %4 = getelementptr inbounds nuw i8, ptr %0, i64 4
  %5 = load i32, ptr %4, align 4, !tbaa !11
  %6 = load i64, ptr %3, align 8, !tbaa !18
  %.not.i.i = icmp eq i32 %5, 0
  %7 = select i1 %.not.i.i, i64 0, i64 %6
  ret i64 %7
}